; Function Attrs: nounwind uwtable
define hidden noundef i32 @mbedtls_sha256_update(ptr noundef captures(none) %0, ptr noundef readonly captures(none) %1, i64 noundef %2) local_unnamed_addr #2 {
  %4 = icmp eq i64 %2, 0
  br i1 %4, label %39, label %5

5:                                                ; preds = %3
  %6 = getelementptr inbounds nuw i8, ptr %0, i64 64
  %7 = load i32, ptr %6, align 4, !tbaa !7
  %8 = and i32 %7, 63
  %9 = sub nuw nsw i32 64, %8
  %10 = zext nneg i32 %9 to i64
  %11 = trunc i64 %2 to i32
  %12 = add i32 %7, %11
  store i32 %12, ptr %6, align 4, !tbaa !7
  %13 = icmp ult i32 %12, %11
  br i1 %13, label %14, label %18

14:                                               ; preds = %5
  %15 = getelementptr inbounds nuw i8, ptr %0, i64 68
  %16 = load i32, ptr %15, align 4, !tbaa !7
  %17 = add i32 %16, 1
  store i32 %17, ptr %15, align 4, !tbaa !7
  br label %18

18:                                               ; preds = %14, %5
  %.not = icmp eq i32 %8, 0
  br i1 %.not, label %26, label %19

19:                                               ; preds = %18
  %.not52 = icmp ult i64 %2, %10
  br i1 %.not52, label %._crit_edge.thread, label %20

20:                                               ; preds = %19
  %21 = zext nneg i32 %8 to i64
  %22 = getelementptr inbounds nuw i8, ptr %0, i64 %21
  tail call void @llvm.memcpy.p0.p0.i64(ptr noundef nonnull align 1 dereferenceable(1) %22, ptr noundef nonnull align 1 dereferenceable(1) %1, i64 %10, i1 false)
  %23 = tail call i32 @mbedtls_internal_sha256_process(ptr noundef nonnull %0, ptr noundef nonnull %0)
  %24 = getelementptr inbounds nuw i8, ptr %1, i64 %10
  %25 = sub nuw i64 %2, %10
  br label %26

26:                                               ; preds = %20, %18
  %.043 = phi i64 [ %25, %20 ], [ %2, %18 ]
  %.040 = phi ptr [ %24, %20 ], [ %1, %18 ]
  %27 = icmp ugt i64 %.043, 63
  br i1 %27, label %.preheader, label %._crit_edge

.preheader:                                       ; preds = %26, %mbedtls_internal_sha256_process_many.exit
  %.14155 = phi ptr [ %34, %mbedtls_internal_sha256_process_many.exit ], [ %.040, %26 ]
  %.14454 = phi i64 [ %35, %mbedtls_internal_sha256_process_many.exit ], [ %.043, %26 ]
  br label %28

28:                                               ; preds = %.preheader, %28
  %.012.i = phi i64 [ %32, %28 ], [ 0, %.preheader ]
  %.0711.i = phi i64 [ %31, %28 ], [ %.14454, %.preheader ]
  %.0810.i = phi ptr [ %30, %28 ], [ %.14155, %.preheader ]
  %29 = tail call i32 @mbedtls_internal_sha256_process(ptr noundef %0, ptr noundef %.0810.i)
  %30 = getelementptr inbounds nuw i8, ptr %.0810.i, i64 64
  %31 = add i64 %.0711.i, -64
  %32 = add nuw i64 %.012.i, 64
  %33 = icmp ugt i64 %31, 63
  br i1 %33, label %28, label %mbedtls_internal_sha256_process_many.exit, !llvm.loop !19

mbedtls_internal_sha256_process_many.exit:        ; preds = %28
  %34 = getelementptr inbounds nuw i8, ptr %.14155, i64 %32
  %35 = sub i64 %.14454, %32
  %36 = icmp ugt i64 %35, 63
  br i1 %36, label %.preheader, label %._crit_edge, !llvm.loop !20

._crit_edge:                                      ; preds = %mbedtls_internal_sha256_process_many.exit, %26
  %.144.lcssa = phi i64 [ %.043, %26 ], [ %35, %mbedtls_internal_sha256_process_many.exit ]
  %.141.lcssa = phi ptr [ %.040, %26 ], [ %34, %mbedtls_internal_sha256_process_many.exit ]
  %.not53 = icmp eq i64 %.144.lcssa, 0
  br i1 %.not53, label %39, label %._crit_edge.thread

._crit_edge.thread:                               ; preds = %19, %._crit_edge
  %.141.lcssa69 = phi ptr [ %.141.lcssa, %._crit_edge ], [ %1, %19 ]
  %.144.lcssa68 = phi i64 [ %.144.lcssa, %._crit_edge ], [ %2, %19 ]
  %.0396267 = phi i32 [ 0, %._crit_edge ], [ %8, %19 ]
  %37 = zext nneg i32 %.0396267 to i64
  %38 = getelementptr inbounds nuw i8, ptr %0, i64 %37
  tail call void @llvm.memcpy.p0.p0.i64(ptr align 1 %38, ptr align 1 %.141.lcssa69, i64 %.144.lcssa68, i1 false)
  br label %39

39:                                               ; preds = %._crit_edge, %._crit_edge.thread, %3
  ret i32 0
}